; Function Attrs: nounwind uwtable
define internal fastcc void @add_branch(ptr noundef %0, ptr noundef %1, ptr noundef %2, i32 noundef %3, ptr noundef nonnull initializes((8, 16)) %4) unnamed_addr #0 {
  %6 = getelementptr inbounds nuw i8, ptr %4, i64 8
  store i64 0, ptr %6, align 8, !tbaa !28
  %7 = getelementptr inbounds nuw i8, ptr %4, i64 16
  %8 = load ptr, ptr %7, align 8, !tbaa !24
  %.not9.i = icmp eq ptr %8, @strbuf_slopbuf
  br i1 %.not9.i, label %strbuf_setlen.exit, label %9

9:                                                ; preds = %5
  store i8 0, ptr %8, align 1, !tbaa !29
  br label %strbuf_setlen.exit

strbuf_setlen.exit:                               ; preds = %5, %9
  %10 = load i64, ptr %4, align 8, !tbaa !127
  %.not.i.i = icmp eq i64 %10, 0
  br i1 %.not.i.i, label %strbuf_avail.exit.thread.i, label %strbuf_avail.exit.i

strbuf_avail.exit.i:                              ; preds = %strbuf_setlen.exit
  %11 = load i64, ptr %6, align 8, !tbaa !28
  %.neg.i = add i64 %11, 1
  %.not.i = icmp eq i64 %10, %.neg.i
  br i1 %.not.i, label %strbuf_avail.exit.thread.i, label %strbuf_addch.exit

strbuf_avail.exit.thread.i:                       ; preds = %strbuf_avail.exit.i, %strbuf_setlen.exit
  tail call void @strbuf_grow(ptr noundef nonnull %4, i64 noundef 1) #19
  %.pre.i = load i64, ptr %6, align 8, !tbaa !28
  %.pre7.i = add i64 %.pre.i, 1
  br label %strbuf_addch.exit

strbuf_addch.exit:                                ; preds = %strbuf_avail.exit.i, %strbuf_avail.exit.thread.i
  %.pre-phi.i = phi i64 [ %.pre7.i, %strbuf_avail.exit.thread.i ], [ %.neg.i, %strbuf_avail.exit.i ]
  %12 = phi i64 [ %.pre.i, %strbuf_avail.exit.thread.i ], [ %11, %strbuf_avail.exit.i ]
  %13 = load ptr, ptr %7, align 8, !tbaa !24
  store i64 %.pre-phi.i, ptr %6, align 8, !tbaa !28
  %14 = getelementptr inbounds nuw i8, ptr %13, i64 %12
  store i8 43, ptr %14, align 1, !tbaa !29
  %15 = load ptr, ptr %7, align 8, !tbaa !24
  %16 = load i64, ptr %6, align 8, !tbaa !28
  %17 = getelementptr inbounds nuw i8, ptr %15, i64 %16
  store i8 0, ptr %17, align 1, !tbaa !29
  %.not = icmp eq i32 %3, 0
  br i1 %.not, label %19, label %18

18:                                               ; preds = %strbuf_addch.exit
  tail call void (ptr, ptr, ...) @strbuf_addf(ptr noundef nonnull %4, ptr noundef nonnull @.str.49, ptr noundef %1, ptr noundef %1) #19
  br label %20

19:                                               ; preds = %strbuf_addch.exit
  tail call void (ptr, ptr, ...) @strbuf_addf(ptr noundef nonnull %4, ptr noundef nonnull @.str.50, ptr noundef %1, ptr noundef %2, ptr noundef %1) #19
  br label %20

20:                                               ; preds = %19, %18
  %21 = load ptr, ptr %7, align 8, !tbaa !24
  %22 = load ptr, ptr @the_repository, align 8, !tbaa !26
  tail call void @repo_config_set_multivar(ptr noundef %22, ptr noundef %0, ptr noundef %21, ptr noundef nonnull @.str.51, i32 noundef 0) #19
  ret void
}